; Function Attrs: nounwind uwtable
define dso_local void @tr2tls_pop_self() local_unnamed_addr #0 {
  %1 = load i32, ptr @tr2tls_key, align 4, !tbaa !18
  %2 = tail call ptr @pthread_getspecific(i32 noundef %1) #11
  %.not.i = icmp eq ptr %2, null
  br i1 %.not.i, label %3, label %tr2tls_get_self.exit

3:                                                ; preds = %0
  %4 = tail call i64 @getnanotime() #11
  %5 = udiv i64 %4, 1000
  %6 = tail call ptr @tr2tls_create_self(ptr noundef nonnull @.str.1, i64 noundef %5)
  br label %tr2tls_get_self.exit

tr2tls_get_self.exit:                             ; preds = %0, %3
  %.0.i = phi ptr [ %2, %0 ], [ %6, %3 ]
  %7 = getelementptr inbounds nuw i8, ptr %.0.i, i64 24
  %8 = load i64, ptr %7, align 8, !tbaa !17
  %.not = icmp eq i64 %8, 0
  br i1 %.not, label %9, label %11

9:                                                ; preds = %tr2tls_get_self.exit
  %10 = load ptr, ptr %.0.i, align 8, !tbaa !25
  tail call void (ptr, i32, ptr, ...) @BUG_fl(ptr noundef nonnull @.str.2, i32 noundef 120, ptr noundef nonnull @.str.3, ptr noundef %10) #13
  unreachable

11:                                               ; preds = %tr2tls_get_self.exit
  %12 = add i64 %8, -1
  store i64 %12, ptr %7, align 8, !tbaa !17
  ret void
}